; Function Attrs: mustprogress nofree norecurse nounwind willreturn memory(read, argmem: readwrite, inaccessiblemem: readwrite) uwtable
define dso_local i32 @cmsysProcess_GetExitExceptionByIndex(ptr noundef %0, i32 noundef %1) local_unnamed_addr #13 {
  %.not = icmp eq ptr %0, null
  br i1 %.not, label %14, label %3

3:                                                ; preds = %2
  %4 = getelementptr inbounds nuw i8, ptr %0, i64 8
  %5 = load volatile i32, ptr %4, align 8, !tbaa !22
  %6 = icmp sge i32 %1, %5
  %7 = icmp slt i32 %1, 0
  %or.cond = or i1 %7, %6
  br i1 %or.cond, label %14, label %8

8:                                                ; preds = %3
  %9 = getelementptr inbounds nuw i8, ptr %0, i64 2328
  %10 = load ptr, ptr %9, align 8, !tbaa !32
  %11 = zext nneg i32 %1 to i64
  %12 = getelementptr inbounds nuw %struct.kwsysProcessResults_s, ptr %10, i64 %11, i32 1
  %13 = load i32, ptr %12, align 4, !tbaa !39
  br label %14

14:                                               ; preds = %2, %3, %8
  %.0 = phi i32 [ %13, %8 ], [ 5, %3 ], [ 5, %2 ]
  ret i32 %.0
}